target datalayout = "e-m:e-p270:32:32-p271:32:32-p272:64:64-i64:64-i128:128-f80:128-n8:16:32:64-S128"
target triple = "x86_64-pc-linux-gnu"

%"class.std::__shared_count" = type { ptr }
%"class.std::shared_ptr.6" = type { %"class.std::__shared_ptr.7" }
%"class.std::__shared_ptr.7" = type { ptr, %"class.std::__shared_count" }
%"struct.folly::IOThreadPoolExecutor::Options" = type { i8, i8 }

@_ZN3fLB34FLAGS_dynamic_iothreadpoolexecutorE = global i8 1, align 1

; Function Attrs: mustprogress nounwind uwtable
define linkonce_odr void @_ZNSt14__shared_countILN9__gnu_cxx12_Lock_policyE2EE7_M_swapERS2_(ptr noundef nonnull align 8 dereferenceable(8) %0, ptr noundef nonnull align 8 dereferenceable(8) %1) #0 comdat align 2 {
  %3 = alloca ptr, align 8
  %4 = alloca ptr, align 8
  %5 = alloca ptr, align 8
  store ptr %0, ptr %3, align 8, !tbaa !171
  store ptr %1, ptr %4, align 8, !tbaa !171
  %6 = load ptr, ptr %3, align 8
  call void @llvm.lifetime.start.p0(i64 8, ptr %5) #25
  %7 = load ptr, ptr %4, align 8, !tbaa !171
  %8 = getelementptr inbounds nuw %"class.std::__shared_count", ptr %7, i32 0, i32 0
  %9 = load ptr, ptr %8, align 8, !tbaa !173
  store ptr %9, ptr %5, align 8, !tbaa !174
  %10 = getelementptr inbounds nuw %"class.std::__shared_count", ptr %6, i32 0, i32 0
  %11 = load ptr, ptr %10, align 8, !tbaa !173
  %12 = load ptr, ptr %4, align 8, !tbaa !171
  %13 = getelementptr inbounds nuw %"class.std::__shared_count", ptr %12, i32 0, i32 0
  store ptr %11, ptr %13, align 8, !tbaa !173
  %14 = load ptr, ptr %5, align 8, !tbaa !174
  %15 = getelementptr inbounds nuw %"class.std::__shared_count", ptr %6, i32 0, i32 0
  store ptr %14, ptr %15, align 8, !tbaa !173
  call void @llvm.lifetime.end.p0(i64 8, ptr %5) #25
  ret void
}

; Function Attrs: mustprogress nounwind uwtable
define linkonce_odr void @_ZNSt14__shared_countILN9__gnu_cxx12_Lock_policyE2EEC2Ev(ptr noundef nonnull align 8 dereferenceable(8) %0) unnamed_addr #0 comdat align 2 {
  %2 = alloca ptr, align 8
  store ptr %0, ptr %2, align 8, !tbaa !171
  %3 = load ptr, ptr %2, align 8
  %4 = getelementptr inbounds nuw %"class.std::__shared_count", ptr %3, i32 0, i32 0
  store ptr null, ptr %4, align 8, !tbaa !173
  ret void
}

; Function Attrs: mustprogress nounwind uwtable
define linkonce_odr void @_ZNSt12__shared_ptrIN5folly13ThreadFactoryELN9__gnu_cxx12_Lock_policyE2EEC2EOS4_(ptr noundef nonnull align 8 dereferenceable(16) %0, ptr noundef nonnull align 8 dereferenceable(16) %1) unnamed_addr #0 comdat align 2 {
  %3 = alloca ptr, align 8
  %4 = alloca ptr, align 8
  store ptr %0, ptr %3, align 8, !tbaa !168
  store ptr %1, ptr %4, align 8, !tbaa !168
  %5 = load ptr, ptr %3, align 8
  %6 = getelementptr inbounds nuw %"class.std::__shared_ptr.7", ptr %5, i32 0, i32 0
  %7 = load ptr, ptr %4, align 8, !tbaa !168
  %8 = getelementptr inbounds nuw %"class.std::__shared_ptr.7", ptr %7, i32 0, i32 0
  %9 = load ptr, ptr %8, align 8, !tbaa !170
  store ptr %9, ptr %6, align 8, !tbaa !170
  %10 = getelementptr inbounds nuw %"class.std::__shared_ptr.7", ptr %5, i32 0, i32 1
  call void @_ZNSt14__shared_countILN9__gnu_cxx12_Lock_policyE2EEC2Ev(ptr noundef nonnull align 8 dereferenceable(8) %10) #25
  %11 = getelementptr inbounds nuw %"class.std::__shared_ptr.7", ptr %5, i32 0, i32 1
  %12 = load ptr, ptr %4, align 8, !tbaa !168
  %13 = getelementptr inbounds nuw %"class.std::__shared_ptr.7", ptr %12, i32 0, i32 1
  call void @_ZNSt14__shared_countILN9__gnu_cxx12_Lock_policyE2EE7_M_swapERS2_(ptr noundef nonnull align 8 dereferenceable(8) %11, ptr noundef nonnull align 8 dereferenceable(8) %13) #25
  %14 = load ptr, ptr %4, align 8, !tbaa !168
  %15 = getelementptr inbounds nuw %"class.std::__shared_ptr.7", ptr %14, i32 0, i32 0
  store ptr null, ptr %15, align 8, !tbaa !170
  ret void
}

; Function Attrs: mustprogress nounwind uwtable
define linkonce_odr void @_ZNSt10shared_ptrIN5folly13ThreadFactoryEEC2EOS2_(ptr noundef nonnull align 8 dereferenceable(16) %0, ptr noundef nonnull align 8 dereferenceable(16) %1) unnamed_addr #0 comdat align 2 {
  %3 = alloca ptr, align 8
  %4 = alloca ptr, align 8
  store ptr %0, ptr %3, align 8, !tbaa !160
  store ptr %1, ptr %4, align 8, !tbaa !160
  %5 = load ptr, ptr %3, align 8
  %6 = load ptr, ptr %4, align 8, !tbaa !160
  call void @_ZNSt12__shared_ptrIN5folly13ThreadFactoryELN9__gnu_cxx12_Lock_policyE2EEC2EOS4_(ptr noundef nonnull align 8 dereferenceable(16) %5, ptr noundef nonnull align 8 dereferenceable(16) %6) #25
  ret void
}

; Function Attrs: mustprogress uwtable
define void @_ZN5folly20IOThreadPoolExecutorC2EmSt10shared_ptrINS_13ThreadFactoryEEPNS_16EventBaseManagerENS0_7OptionsE(ptr noundef nonnull align 64 dereferenceable(568) %0, ptr noundef %1, i64 noundef %2, ptr noundef %3, ptr noundef %4, i16 %5) unnamed_addr #2 align 2 personality ptr @__gxx_personality_v0 {
  %7 = alloca %"struct.folly::IOThreadPoolExecutor::Options", align 1
  %8 = alloca ptr, align 8
  %9 = alloca ptr, align 8
  %10 = alloca i64, align 8
  %11 = alloca ptr, align 8
  %12 = alloca ptr, align 8
  %13 = alloca %"class.std::shared_ptr.6", align 8
  %14 = alloca %"struct.folly::IOThreadPoolExecutor::Options", align 1
  %15 = alloca ptr, align 8
  %16 = alloca i32, align 4
  store i16 %5, ptr %7, align 1
  store ptr %0, ptr %8, align 8, !tbaa !31
  store ptr %1, ptr %9, align 8, !tbaa !159
  store i64 %2, ptr %10, align 8, !tbaa !16
  store ptr %3, ptr %11, align 8, !tbaa !160
  store ptr %4, ptr %12, align 8, !tbaa !162
  %17 = load ptr, ptr %8, align 8
  %18 = load ptr, ptr %9, align 8
  %19 = load i64, ptr %10, align 8, !tbaa !16
  %20 = load i8, ptr @_ZN3fLB34FLAGS_dynamic_iothreadpoolexecutorE, align 1, !tbaa !163, !range !148, !noundef !149
  %21 = trunc i8 %20 to i1
  br i1 %21, label %22, label %23

22:                                               ; preds = %6
  br label %25

23:                                               ; preds = %6
  %24 = load i64, ptr %10, align 8, !tbaa !16
  br label %25

25:                                               ; preds = %23, %22
  %26 = phi i64 [ 0, %22 ], [ %24, %23 ]
  call void @_ZNSt10shared_ptrIN5folly13ThreadFactoryEEC2EOS2_(ptr noundef nonnull align 8 dereferenceable(16) %13, ptr noundef nonnull align 8 dereferenceable(16) %3) #25
  %27 = load ptr, ptr %12, align 8, !tbaa !162
  call void @llvm.memcpy.p0.p0.i64(ptr align 1 %14, ptr align 1 %7, i64 2, i1 false), !tbaa.struct !164
  %28 = load i16, ptr %14, align 1
  invoke void @_ZN5folly20IOThreadPoolExecutorC2EmmSt10shared_ptrINS_13ThreadFactoryEEPNS_16EventBaseManagerENS0_7OptionsE(ptr noundef nonnull align 64 dereferenceable(568) %17, ptr noundef %18, i64 noundef %19, i64 noundef %26, ptr noundef %13, ptr noundef %27, i16 %28)
          to label %29 unwind label %30

29:                                               ; preds = %25
  call void @_ZNSt12__shared_ptrIN5folly13ThreadFactoryELN9__gnu_cxx12_Lock_policyE2EED2Ev(ptr noundef nonnull align 8 dereferenceable(16) %13) #25
  ret void

30:                                               ; preds = %25
  %31 = landingpad { ptr, i32 }
          cleanup
  %32 = extractvalue { ptr, i32 } %31, 0
  store ptr %32, ptr %15, align 8
  %33 = extractvalue { ptr, i32 } %31, 1
  store i32 %33, ptr %16, align 4
  call void @_ZNSt12__shared_ptrIN5folly13ThreadFactoryELN9__gnu_cxx12_Lock_policyE2EED2Ev(ptr noundef nonnull align 8 dereferenceable(16) %13) #25
  br label %34

34:                                               ; preds = %30
  %35 = load ptr, ptr %15, align 8
  %36 = load i32, ptr %16, align 4
  %37 = insertvalue { ptr, i32 } poison, ptr %35, 0
  %38 = insertvalue { ptr, i32 } %37, i32 %36, 1
  resume { ptr, i32 } %38
}