; Function Attrs: mustprogress uwtable
define void @_ZN5folly20IOThreadPoolExecutorC2EmSt10shared_ptrINS_13ThreadFactoryEEPNS_16EventBaseManagerENS0_7OptionsE(ptr noundef nonnull align 64 dereferenceable(568) %0, ptr noundef %1, i64 noundef %2, ptr noundef captures(none) %3, ptr noundef %4, i16 %5) unnamed_addr #2 align 2 personality ptr @__gxx_personality_v0 {
  %7 = alloca %"class.std::shared_ptr.6", align 8
  %8 = load i8, ptr @_ZN3fLB34FLAGS_dynamic_iothreadpoolexecutorE, align 1, !tbaa !253, !range !211, !noundef !212
  %9 = trunc nuw i8 %8 to i1
  %10 = select i1 %9, i64 0, i64 %2
  %11 = load ptr, ptr %3, align 8, !tbaa !254
  store ptr %11, ptr %7, align 8, !tbaa !254
  %12 = getelementptr inbounds nuw i8, ptr %7, i64 8
  %13 = getelementptr inbounds nuw i8, ptr %3, i64 8
  %14 = load ptr, ptr %13, align 8, !tbaa !46
  store ptr null, ptr %13, align 8, !tbaa !46
  store ptr %14, ptr %12, align 8, !tbaa !46
  store ptr null, ptr %3, align 8, !tbaa !254
  invoke void @_ZN5folly20IOThreadPoolExecutorC2EmmSt10shared_ptrINS_13ThreadFactoryEEPNS_16EventBaseManagerENS0_7OptionsE(ptr noundef nonnull align 64 dereferenceable(568) %0, ptr noundef %1, i64 noundef %2, i64 noundef %10, ptr noundef nonnull %7, ptr noundef %4, i16 %5)
          to label %15 unwind label %38

15:                                               ; preds = %6
  %16 = load ptr, ptr %12, align 8, !tbaa !46
  %.not.i.i = icmp eq ptr %16, null
  br i1 %.not.i.i, label %_ZNSt12__shared_ptrIN5folly13ThreadFactoryELN9__gnu_cxx12_Lock_policyE2EED2Ev.exit, label %17

17:                                               ; preds = %15
  %18 = getelementptr inbounds nuw i8, ptr %16, i64 8
  %19 = load atomic i64, ptr %18 acquire, align 8
  %20 = icmp eq i64 %19, 4294967297
  %21 = trunc i64 %19 to i32
  br i1 %20, label %22, label %30

22:                                               ; preds = %17
  store i32 0, ptr %18, align 8, !tbaa !21
  %23 = getelementptr inbounds nuw i8, ptr %16, i64 12
  store i32 0, ptr %23, align 4, !tbaa !24
  %24 = load ptr, ptr %16, align 8, !tbaa !25
  %25 = getelementptr inbounds nuw i8, ptr %24, i64 16
  %26 = load ptr, ptr %25, align 8
  tail call void %26(ptr noundef nonnull align 8 dereferenceable(16) %16) #25
  %27 = load ptr, ptr %16, align 8, !tbaa !25
  %28 = getelementptr inbounds nuw i8, ptr %27, i64 24
  %29 = load ptr, ptr %28, align 8
  tail call void %29(ptr noundef nonnull align 8 dereferenceable(16) %16) #25
  br label %_ZNSt12__shared_ptrIN5folly13ThreadFactoryELN9__gnu_cxx12_Lock_policyE2EED2Ev.exit

30:                                               ; preds = %17
  %31 = load i8, ptr @__libc_single_threaded, align 1, !tbaa !48
  %.not.i.i.i = icmp eq i8 %31, 0
  br i1 %.not.i.i.i, label %34, label %32

32:                                               ; preds = %30
  %33 = add nsw i32 %21, -1
  store i32 %33, ptr %18, align 4, !tbaa !60
  br label %_ZN9__gnu_cxx27__exchange_and_add_dispatchEPii.exit.i.i.i

34:                                               ; preds = %30
  %35 = atomicrmw volatile add ptr %18, i32 -1 acq_rel, align 4
  br label %_ZN9__gnu_cxx27__exchange_and_add_dispatchEPii.exit.i.i.i

_ZN9__gnu_cxx27__exchange_and_add_dispatchEPii.exit.i.i.i: ; preds = %34, %32
  %.0.i.i.i.i = phi i32 [ %21, %32 ], [ %35, %34 ]
  %36 = icmp eq i32 %.0.i.i.i.i, 1
  br i1 %36, label %37, label %_ZNSt12__shared_ptrIN5folly13ThreadFactoryELN9__gnu_cxx12_Lock_policyE2EED2Ev.exit, !prof !91

37:                                               ; preds = %_ZN9__gnu_cxx27__exchange_and_add_dispatchEPii.exit.i.i.i
  tail call void @_ZNSt16_Sp_counted_baseILN9__gnu_cxx12_Lock_policyE2EE24_M_release_last_use_coldEv(ptr noundef nonnull align 8 dereferenceable(16) %16) #25
  br label %_ZNSt12__shared_ptrIN5folly13ThreadFactoryELN9__gnu_cxx12_Lock_policyE2EED2Ev.exit

_ZNSt12__shared_ptrIN5folly13ThreadFactoryELN9__gnu_cxx12_Lock_policyE2EED2Ev.exit: ; preds = %15, %22, %_ZN9__gnu_cxx27__exchange_and_add_dispatchEPii.exit.i.i.i, %37
  ret void

38:                                               ; preds = %6
  %39 = landingpad { ptr, i32 }
          cleanup
  call void @_ZNSt12__shared_ptrIN5folly13ThreadFactoryELN9__gnu_cxx12_Lock_policyE2EED2Ev(ptr noundef nonnull align 8 dereferenceable(16) %7) #25
  resume { ptr, i32 } %39
}